target datalayout = "e-m:e-p270:32:32-p271:32:32-p272:64:64-i64:64-i128:128-f80:128-n8:16:32:64-S128"
target triple = "x86_64-unknown-linux-gnu"

%"class.cvc5::internal::TypeNode" = type { ptr }
%"class.cvc5::internal::expr::NodeValue" = type { i64, i16, i32, [0 x ptr] }

; Function Attrs: mustprogress nounwind uwtable
define linkonce_odr hidden noundef i32 @_ZNK4cvc58internal8TypeNode7getKindEv(ptr noundef nonnull align 8 dereferenceable(8) %this) #7 comdat align 2 {
entry:
  %this.addr = alloca ptr, align 8
  store ptr %this, ptr %this.addr, align 8
  %this1 = load ptr, ptr %this.addr, align 8
  %d_nv = getelementptr inbounds %"class.cvc5::internal::TypeNode", ptr %this1, i32 0, i32 0
  %0 = load ptr, ptr %d_nv, align 8
  %d_kind = getelementptr inbounds %"class.cvc5::internal::expr::NodeValue", ptr %0, i32 0, i32 1
  %bf.load = load i16, ptr %d_kind, align 8
  %bf.clear = and i16 %bf.load, 1023
  %bf.cast = zext i16 %bf.clear to i32
  ret i32 %bf.cast
}

; Function Attrs: mustprogress nounwind uwtable
define linkonce_odr hidden noundef zeroext i1 @_ZNK4cvc58internal8TypeNode10isFunctionEv(ptr noundef nonnull align 8 dereferenceable(8) %this) #7 comdat align 2 {
entry:
  %this.addr = alloca ptr, align 8
  store ptr %this, ptr %this.addr, align 8
  %this1 = load ptr, ptr %this.addr, align 8
  %call = call noundef i32 @_ZNK4cvc58internal8TypeNode7getKindEv(ptr noundef nonnull align 8 dereferenceable(8) %this1)
  %cmp = icmp eq i32 %call, 25
  ret i1 %cmp
}

; Function Attrs: mustprogress uwtable
define hidden noundef i32 @_ZN4cvc58internal11NodeManager18getKindForFunctionENS0_12NodeTemplateILb0EEE(ptr noundef %fun) #4 align 2 personality ptr @__gxx_personality_v0 {
entry:
  %retval = alloca i32, align 4
  %fun.indirect_addr = alloca ptr, align 8
  %tn = alloca %"class.cvc5::internal::TypeNode", align 8
  %exn.slot = alloca ptr, align 8
  %ehselector.slot = alloca i32, align 4
  %cleanup.dest.slot = alloca i32, align 4
  store ptr %fun, ptr %fun.indirect_addr, align 8
  call void @_ZNK4cvc58internal12NodeTemplateILb0EE7getTypeEb(ptr sret(%"class.cvc5::internal::TypeNode") align 8 %tn, ptr noundef nonnull align 8 dereferenceable(8) %fun, i1 noundef zeroext false)
  %call = invoke noundef zeroext i1 @_ZNK4cvc58internal8TypeNode10isFunctionEv(ptr noundef nonnull align 8 dereferenceable(8) %tn)
          to label %invoke.cont unwind label %lpad

invoke.cont:                                      ; preds = %entry
  br i1 %call, label %if.then, label %if.else

if.then:                                          ; preds = %invoke.cont
  store i32 24, ptr %retval, align 4
  store i32 1, ptr %cleanup.dest.slot, align 4
  br label %cleanup

lpad:                                             ; preds = %if.else12, %if.else8, %if.else4, %if.else, %entry
  %0 = landingpad { ptr, i32 }
          cleanup
  %1 = extractvalue { ptr, i32 } %0, 0
  store ptr %1, ptr %exn.slot, align 8
  %2 = extractvalue { ptr, i32 } %0, 1
  store i32 %2, ptr %ehselector.slot, align 4
  call void @_ZN4cvc58internal8TypeNodeD2Ev(ptr noundef nonnull align 8 dereferenceable(8) %tn) #3
  br label %eh.resume

if.else:                                          ; preds = %invoke.cont
  %call2 = invoke noundef zeroext i1 @_ZNK4cvc58internal8TypeNode21isDatatypeConstructorEv(ptr noundef nonnull align 8 dereferenceable(8) %tn)
          to label %invoke.cont1 unwind label %lpad

invoke.cont1:                                     ; preds = %if.else
  br i1 %call2, label %if.then3, label %if.else4

if.then3:                                         ; preds = %invoke.cont1
  store i32 217, ptr %retval, align 4
  store i32 1, ptr %cleanup.dest.slot, align 4
  br label %cleanup

if.else4:                                         ; preds = %invoke.cont1
  %call6 = invoke noundef zeroext i1 @_ZNK4cvc58internal8TypeNode18isDatatypeSelectorEv(ptr noundef nonnull align 8 dereferenceable(8) %tn)
          to label %invoke.cont5 unwind label %lpad

invoke.cont5:                                     ; preds = %if.else4
  br i1 %call6, label %if.then7, label %if.else8

if.then7:                                         ; preds = %invoke.cont5
  store i32 218, ptr %retval, align 4
  store i32 1, ptr %cleanup.dest.slot, align 4
  br label %cleanup

if.else8:                                         ; preds = %invoke.cont5
  %call10 = invoke noundef zeroext i1 @_ZNK4cvc58internal8TypeNode16isDatatypeTesterEv(ptr noundef nonnull align 8 dereferenceable(8) %tn)
          to label %invoke.cont9 unwind label %lpad

invoke.cont9:                                     ; preds = %if.else8
  br i1 %call10, label %if.then11, label %if.else12

if.then11:                                        ; preds = %invoke.cont9
  store i32 219, ptr %retval, align 4
  store i32 1, ptr %cleanup.dest.slot, align 4
  br label %cleanup

if.else12:                                        ; preds = %invoke.cont9
  %call14 = invoke noundef zeroext i1 @_ZNK4cvc58internal8TypeNode17isDatatypeUpdaterEv(ptr noundef nonnull align 8 dereferenceable(8) %tn)
          to label %invoke.cont13 unwind label %lpad

invoke.cont13:                                    ; preds = %if.else12
  br i1 %call14, label %if.then15, label %if.end

if.then15:                                        ; preds = %invoke.cont13
  store i32 220, ptr %retval, align 4
  store i32 1, ptr %cleanup.dest.slot, align 4
  br label %cleanup

if.end:                                           ; preds = %invoke.cont13
  br label %if.end16

if.end16:                                         ; preds = %if.end
  br label %if.end17

if.end17:                                         ; preds = %if.end16
  br label %if.end18

if.end18:                                         ; preds = %if.end17
  br label %if.end19

if.end19:                                         ; preds = %if.end18
  store i32 -1, ptr %retval, align 4
  store i32 1, ptr %cleanup.dest.slot, align 4
  br label %cleanup

cleanup:                                          ; preds = %if.end19, %if.then15, %if.then11, %if.then7, %if.then3, %if.then
  call void @_ZN4cvc58internal8TypeNodeD2Ev(ptr noundef nonnull align 8 dereferenceable(8) %tn) #3
  %3 = load i32, ptr %retval, align 4
  ret i32 %3

eh.resume:                                        ; preds = %lpad
  %exn = load ptr, ptr %exn.slot, align 8
  %sel = load i32, ptr %ehselector.slot, align 4
  %lpad.val = insertvalue { ptr, i32 } poison, ptr %exn, 0
  %lpad.val20 = insertvalue { ptr, i32 } %lpad.val, i32 %sel, 1
  resume { ptr, i32 } %lpad.val20
}