; Function Attrs: mustprogress uwtable
define hidden noundef i32 @_ZN4cvc58internal11NodeManager18getKindForFunctionENS0_12NodeTemplateILb0EEE(ptr noundef nonnull %fun) local_unnamed_addr #3 align 2 personality ptr @__gxx_personality_v0 {
entry:
  %tn = alloca %"class.cvc5::internal::TypeNode", align 8
  call void @_ZNK4cvc58internal12NodeTemplateILb0EE7getTypeEb(ptr nonnull sret(%"class.cvc5::internal::TypeNode") align 8 %tn, ptr noundef nonnull align 8 dereferenceable(8) %fun, i1 noundef zeroext false)
  %0 = load ptr, ptr %tn, align 8
  %d_kind.i.i = getelementptr inbounds i8, ptr %0, i64 8
  %bf.load.i.i = load i16, ptr %d_kind.i.i, align 8
  %bf.clear.i.i = and i16 %bf.load.i.i, 1023
  %cmp.i = icmp eq i16 %bf.clear.i.i, 25
  br i1 %cmp.i, label %cleanup, label %if.else

lpad:                                             ; preds = %if.else12, %if.else8, %if.else4, %if.else
  %1 = landingpad { ptr, i32 }
          cleanup
  call void @_ZN4cvc58internal8TypeNodeD2Ev(ptr noundef nonnull align 8 dereferenceable(8) %tn) #7
  resume { ptr, i32 } %1

if.else:                                          ; preds = %entry
  %call2 = invoke noundef zeroext i1 @_ZNK4cvc58internal8TypeNode21isDatatypeConstructorEv(ptr noundef nonnull align 8 dereferenceable(8) %tn)
          to label %invoke.cont1 unwind label %lpad

invoke.cont1:                                     ; preds = %if.else
  br i1 %call2, label %cleanup, label %if.else4

if.else4:                                         ; preds = %invoke.cont1
  %call6 = invoke noundef zeroext i1 @_ZNK4cvc58internal8TypeNode18isDatatypeSelectorEv(ptr noundef nonnull align 8 dereferenceable(8) %tn)
          to label %invoke.cont5 unwind label %lpad

invoke.cont5:                                     ; preds = %if.else4
  br i1 %call6, label %cleanup, label %if.else8

if.else8:                                         ; preds = %invoke.cont5
  %call10 = invoke noundef zeroext i1 @_ZNK4cvc58internal8TypeNode16isDatatypeTesterEv(ptr noundef nonnull align 8 dereferenceable(8) %tn)
          to label %invoke.cont9 unwind label %lpad

invoke.cont9:                                     ; preds = %if.else8
  br i1 %call10, label %cleanup, label %if.else12

if.else12:                                        ; preds = %invoke.cont9
  %call14 = invoke noundef zeroext i1 @_ZNK4cvc58internal8TypeNode17isDatatypeUpdaterEv(ptr noundef nonnull align 8 dereferenceable(8) %tn)
          to label %invoke.cont13 unwind label %lpad

invoke.cont13:                                    ; preds = %if.else12
  %. = select i1 %call14, i32 220, i32 -1
  br label %cleanup

cleanup:                                          ; preds = %invoke.cont13, %invoke.cont9, %invoke.cont5, %invoke.cont1, %entry
  %retval.0 = phi i32 [ 24, %entry ], [ 217, %invoke.cont1 ], [ 218, %invoke.cont5 ], [ 219, %invoke.cont9 ], [ %., %invoke.cont13 ]
  %2 = load ptr, ptr %tn, align 8
  %bf.load.i.i1 = load i64, ptr %2, align 8
  %3 = and i64 %bf.load.i.i1, 1152920405095219200
  %cmp.not.i.i = icmp eq i64 %3, 1152920405095219200
  br i1 %cmp.not.i.i, label %_ZN4cvc58internal8TypeNodeD2Ev.exit, label %if.then.i.i

if.then.i.i:                                      ; preds = %cleanup
  %bf.value.i.i = add i64 %bf.load.i.i1, 1152920405095219200
  %bf.shl.i.i = and i64 %bf.value.i.i, 1152920405095219200
  %bf.clear7.i.i = and i64 %bf.load.i.i1, -1152920405095219201
  %bf.set.i.i = or disjoint i64 %bf.shl.i.i, %bf.clear7.i.i
  store i64 %bf.set.i.i, ptr %2, align 8
  %cmp12.i.i = icmp eq i64 %bf.shl.i.i, 0
  br i1 %cmp12.i.i, label %if.then13.i.i, label %_ZN4cvc58internal8TypeNodeD2Ev.exit

if.then13.i.i:                                    ; preds = %if.then.i.i
  invoke void @_ZN4cvc58internal4expr9NodeValue15markForDeletionEv(ptr noundef nonnull align 8 dereferenceable(16) %2)
          to label %_ZN4cvc58internal8TypeNodeD2Ev.exit unwind label %terminate.lpad.i

terminate.lpad.i:                                 ; preds = %if.then13.i.i
  %4 = landingpad { ptr, i32 }
          catch ptr null
  %5 = extractvalue { ptr, i32 } %4, 0
  call void @__clang_call_terminate(ptr %5) #28
  unreachable

_ZN4cvc58internal8TypeNodeD2Ev.exit:              ; preds = %cleanup, %if.then.i.i, %if.then13.i.i
  ret i32 %retval.0
}